; ModuleID = '17/1219.c'
source_filename = "17/1219.c"
target datalayout = "e-m:e-p270:32:32-p271:32:32-p272:64:64-i64:64-f80:128-n8:16:32:64-S128"
target triple = "x86_64-pc-linux-gnu"

@.str = private unnamed_addr constant [3 x i8] c"%s\00", align 1
@.str.1 = private unnamed_addr constant [7 x i8] c"%s\0A%s\0A\00", align 1

; Function Attrs: noinline nounwind uwtable
define dso_local i32 @main() #0 {
  %1 = alloca i32, align 4
  %2 = alloca [201 x i8], align 16
  %3 = alloca [201 x i8], align 16
  %4 = alloca [201 x i8], align 16
  %5 = alloca i32, align 4
  %6 = alloca i32, align 4
  %7 = alloca i32, align 4
  %8 = alloca [201 x i32], align 16
  %9 = alloca i32, align 4
  %10 = alloca i32, align 4
  store i32 0, i32* %1, align 4
  br label %11

11:                                               ; preds = %119, %0
  %12 = getelementptr inbounds [201 x i8], [201 x i8]* %2, i64 0, i64 0
  %13 = call i32 (i8*, ...) @__isoc99_scanf(i8* getelementptr inbounds ([3 x i8], [3 x i8]* @.str, i64 0, i64 0), i8* %12)
  %14 = icmp ne i32 %13, -1
  br i1 %14, label %15, label %123

15:                                               ; preds = %11
  %16 = getelementptr inbounds [201 x i8], [201 x i8]* %2, i64 0, i64 0
  %17 = call i64 @strlen(i8* %16) #4
  %18 = trunc i64 %17 to i32
  store i32 %18, i32* %5, align 4
  %19 = getelementptr inbounds [201 x i8], [201 x i8]* %3, i64 0, i64 0
  %20 = getelementptr inbounds [201 x i8], [201 x i8]* %2, i64 0, i64 0
  %21 = call i8* @strcpy(i8* %19, i8* %20) #5
  store i32 0, i32* %6, align 4
  br label %22

22:                                               ; preds = %30, %15
  %23 = load i32, i32* %6, align 4
  %24 = load i32, i32* %5, align 4
  %25 = icmp slt i32 %23, %24
  br i1 %25, label %26, label %33

26:                                               ; preds = %22
  %27 = load i32, i32* %6, align 4
  %28 = sext i32 %27 to i64
  %29 = getelementptr inbounds [201 x i8], [201 x i8]* %3, i64 0, i64 %28
  store i8 32, i8* %29, align 1
  br label %30

30:                                               ; preds = %26
  %31 = load i32, i32* %6, align 4
  %32 = add nsw i32 %31, 1
  store i32 %32, i32* %6, align 4
  br label %22

33:                                               ; preds = %22
  %34 = getelementptr inbounds [201 x i8], [201 x i8]* %4, i64 0, i64 0
  %35 = getelementptr inbounds [201 x i8], [201 x i8]* %2, i64 0, i64 0
  %36 = call i8* @strcpy(i8* %34, i8* %35) #5
  br label %37

37:                                               ; preds = %71, %33
  store i32 0, i32* %6, align 4
  br label %38

38:                                               ; preds = %85, %37
  %39 = load i32, i32* %6, align 4
  %40 = load i32, i32* %5, align 4
  %41 = icmp slt i32 %39, %40
  br i1 %41, label %42, label %88

42:                                               ; preds = %38
  %43 = load i32, i32* %6, align 4
  %44 = sext i32 %43 to i64
  %45 = getelementptr inbounds [201 x i8], [201 x i8]* %2, i64 0, i64 %44
  %46 = load i8, i8* %45, align 1
  %47 = sext i8 %46 to i32
  %48 = icmp eq i32 %47, 40
  br i1 %48, label %49, label %84

49:                                               ; preds = %42
  %50 = load i32, i32* %6, align 4
  %51 = add nsw i32 %50, 1
  store i32 %51, i32* %10, align 4
  br label %52

52:                                               ; preds = %80, %49
  %53 = load i32, i32* %10, align 4
  %54 = load i32, i32* %5, align 4
  %55 = icmp slt i32 %53, %54
  br i1 %55, label %56, label %83

56:                                               ; preds = %52
  %57 = load i32, i32* %10, align 4
  %58 = sext i32 %57 to i64
  %59 = getelementptr inbounds [201 x i8], [201 x i8]* %2, i64 0, i64 %58
  %60 = load i8, i8* %59, align 1
  %61 = sext i8 %60 to i32
  %62 = icmp eq i32 %61, 40
  br i1 %62, label %63, label %64

63:                                               ; preds = %56
  br label %83

64:                                               ; preds = %56
  %65 = load i32, i32* %10, align 4
  %66 = sext i32 %65 to i64
  %67 = getelementptr inbounds [201 x i8], [201 x i8]* %2, i64 0, i64 %66
  %68 = load i8, i8* %67, align 1
  %69 = sext i8 %68 to i32
  %70 = icmp eq i32 %69, 41
  br i1 %70, label %71, label %78

71:                                               ; preds = %64
  %72 = load i32, i32* %10, align 4
  %73 = sext i32 %72 to i64
  %74 = getelementptr inbounds [201 x i8], [201 x i8]* %2, i64 0, i64 %73
  store i8 97, i8* %74, align 1
  %75 = load i32, i32* %6, align 4
  %76 = sext i32 %75 to i64
  %77 = getelementptr inbounds [201 x i8], [201 x i8]* %2, i64 0, i64 %76
  store i8 97, i8* %77, align 1
  br label %37

78:                                               ; preds = %64
  br label %79

79:                                               ; preds = %78
  br label %80

80:                                               ; preds = %79
  %81 = load i32, i32* %10, align 4
  %82 = add nsw i32 %81, 1
  store i32 %82, i32* %10, align 4
  br label %52

83:                                               ; preds = %63, %52
  br label %84

84:                                               ; preds = %83, %42
  br label %85

85:                                               ; preds = %84
  %86 = load i32, i32* %6, align 4
  %87 = add nsw i32 %86, 1
  store i32 %87, i32* %6, align 4
  br label %38

88:                                               ; preds = %38
  store i32 0, i32* %6, align 4
  br label %89

89:                                               ; preds = %116, %88
  %90 = load i32, i32* %6, align 4
  %91 = load i32, i32* %5, align 4
  %92 = icmp slt i32 %90, %91
  br i1 %92, label %93, label %119

93:                                               ; preds = %89
  %94 = load i32, i32* %6, align 4
  %95 = sext i32 %94 to i64
  %96 = getelementptr inbounds [201 x i8], [201 x i8]* %2, i64 0, i64 %95
  %97 = load i8, i8* %96, align 1
  %98 = sext i8 %97 to i32
  %99 = icmp eq i32 %98, 40
  br i1 %99, label %100, label %104

100:                                              ; preds = %93
  %101 = load i32, i32* %6, align 4
  %102 = sext i32 %101 to i64
  %103 = getelementptr inbounds [201 x i8], [201 x i8]* %3, i64 0, i64 %102
  store i8 36, i8* %103, align 1
  br label %104

104:                                              ; preds = %100, %93
  %105 = load i32, i32* %6, align 4
  %106 = sext i32 %105 to i64
  %107 = getelementptr inbounds [201 x i8], [201 x i8]* %2, i64 0, i64 %106
  %108 = load i8, i8* %107, align 1
  %109 = sext i8 %108 to i32
  %110 = icmp eq i32 %109, 41
  br i1 %110, label %111, label %115

111:                                              ; preds = %104
  %112 = load i32, i32* %6, align 4
  %113 = sext i32 %112 to i64
  %114 = getelementptr inbounds [201 x i8], [201 x i8]* %3, i64 0, i64 %113
  store i8 63, i8* %114, align 1
  br label %115

115:                                              ; preds = %111, %104
  br label %116

116:                                              ; preds = %115
  %117 = load i32, i32* %6, align 4
  %118 = add nsw i32 %117, 1
  store i32 %118, i32* %6, align 4
  br label %89

119:                                              ; preds = %89
  %120 = getelementptr inbounds [201 x i8], [201 x i8]* %4, i64 0, i64 0
  %121 = getelementptr inbounds [201 x i8], [201 x i8]* %3, i64 0, i64 0
  %122 = call i32 (i8*, ...) @printf(i8* getelementptr inbounds ([7 x i8], [7 x i8]* @.str.1, i64 0, i64 0), i8* %120, i8* %121)
  br label %11

123:                                              ; preds = %11
  %124 = load i32, i32* %1, align 4
  ret i32 %124
}

declare dso_local i32 @__isoc99_scanf(i8*, ...) #1

; Function Attrs: nounwind readonly
declare dso_local i64 @strlen(i8*) #2

; Function Attrs: nounwind
declare dso_local i8* @strcpy(i8*, i8*) #3

declare dso_local i32 @printf(i8*, ...) #1


!llvm.module.flags = !{!0}
!llvm.ident = !{!1}

!0 = !{i32 1, !"wchar_size", i32 4}
!1 = !{!"clang version 10.0.0-4ubuntu1 "}
